target datalayout = "e-m:e-p270:32:32-p271:32:32-p272:64:64-i64:64-i128:128-f80:128-n8:16:32:64-S128"
target triple = "x86_64-pc-linux-gnu"

%"class.cv::Vec.13" = type { %"class.cv::Matx.14" }
%"class.cv::Matx.14" = type { [2 x i32] }

; Function Attrs: inlinehint mustprogress nounwind uwtable
define linkonce_odr hidden void @_ZN2cv4MatxIiLi2ELi1EEC2EPKi(ptr noundef nonnull align 4 dereferenceable(8) %0, ptr noundef %1) unnamed_addr #6 comdat align 2 {
  %3 = alloca ptr, align 8
  %4 = alloca ptr, align 8
  %5 = alloca i32, align 4
  store ptr %0, ptr %3, align 8, !tbaa !181
  store ptr %1, ptr %4, align 8, !tbaa !66
  %6 = load ptr, ptr %3, align 8
  call void @llvm.lifetime.start.p0(i64 4, ptr %5) #15
  store i32 0, ptr %5, align 4, !tbaa !10
  br label %7

7:                                                ; preds = %21, %2
  %8 = load i32, ptr %5, align 4, !tbaa !10
  %9 = icmp slt i32 %8, 2
  br i1 %9, label %11, label %10

10:                                               ; preds = %7
  call void @llvm.lifetime.end.p0(i64 4, ptr %5) #15
  br label %24

11:                                               ; preds = %7
  %12 = load ptr, ptr %4, align 8, !tbaa !66
  %13 = load i32, ptr %5, align 4, !tbaa !10
  %14 = sext i32 %13 to i64
  %15 = getelementptr inbounds i32, ptr %12, i64 %14
  %16 = load i32, ptr %15, align 4, !tbaa !10
  %17 = getelementptr inbounds nuw %"class.cv::Matx.14", ptr %6, i32 0, i32 0
  %18 = load i32, ptr %5, align 4, !tbaa !10
  %19 = sext i32 %18 to i64
  %20 = getelementptr inbounds [2 x i32], ptr %17, i64 0, i64 %19
  store i32 %16, ptr %20, align 4, !tbaa !10
  br label %21

21:                                               ; preds = %11
  %22 = load i32, ptr %5, align 4, !tbaa !10
  %23 = add nsw i32 %22, 1
  store i32 %23, ptr %5, align 4, !tbaa !10
  br label %7, !llvm.loop !183

24:                                               ; preds = %10
  ret void
}

; Function Attrs: inlinehint mustprogress uwtable
define linkonce_odr hidden void @_ZN2cv3VecIiLi2EEC2ERKS1_(ptr noundef nonnull align 4 dereferenceable(8) %0, ptr noundef nonnull align 4 dereferenceable(8) %1) unnamed_addr #5 comdat align 2 {
  %3 = alloca ptr, align 8
  %4 = alloca ptr, align 8
  store ptr %0, ptr %3, align 8, !tbaa !177
  store ptr %1, ptr %4, align 8, !tbaa !177
  %5 = load ptr, ptr %3, align 8
  %6 = load ptr, ptr %4, align 8, !tbaa !177
  %7 = getelementptr inbounds nuw %"class.cv::Matx.14", ptr %6, i32 0, i32 0
  %8 = getelementptr inbounds [2 x i32], ptr %7, i64 0, i64 0
  call void @_ZN2cv4MatxIiLi2ELi1EEC2EPKi(ptr noundef nonnull align 4 dereferenceable(8) %5, ptr noundef %8)
  ret void
}

; Function Attrs: inlinehint mustprogress uwtable
define linkonce_odr hidden void @_ZSt4swapIN2cv3VecIiLi2EEEENSt9enable_ifIXsr6__and_ISt6__not_ISt15__is_tuple_likeIT_EESt21is_move_constructibleIS6_ESt18is_move_assignableIS6_EEE5valueEvE4typeERS6_SF_(ptr noundef nonnull align 4 dereferenceable(8) %0, ptr noundef nonnull align 4 dereferenceable(8) %1) #5 comdat {
  %3 = alloca ptr, align 8
  %4 = alloca ptr, align 8
  %5 = alloca %"class.cv::Vec.13", align 4
  store ptr %0, ptr %3, align 8, !tbaa !177
  store ptr %1, ptr %4, align 8, !tbaa !177
  call void @llvm.lifetime.start.p0(i64 8, ptr %5) #15
  %6 = load ptr, ptr %3, align 8, !tbaa !177
  call void @_ZN2cv3VecIiLi2EEC2ERKS1_(ptr noundef nonnull align 4 dereferenceable(8) %5, ptr noundef nonnull align 4 dereferenceable(8) %6)
  %7 = load ptr, ptr %4, align 8, !tbaa !177
  %8 = load ptr, ptr %3, align 8, !tbaa !177
  call void @llvm.memcpy.p0.p0.i64(ptr align 4 %8, ptr align 4 %7, i64 8, i1 false)
  %9 = load ptr, ptr %4, align 8, !tbaa !177
  call void @llvm.memcpy.p0.p0.i64(ptr align 4 %9, ptr align 4 %5, i64 8, i1 false)
  call void @llvm.lifetime.end.p0(i64 8, ptr %5) #15
  ret void
}

; Function Attrs: mustprogress uwtable
define internal void @_ZN2cvL11transposeI_INS_3VecIiLi2EEEEEvPhmi(ptr noundef %0, i64 noundef %1, i32 noundef %2) #0 {
  %4 = alloca ptr, align 8
  %5 = alloca i64, align 8
  %6 = alloca i32, align 4
  %7 = alloca i32, align 4
  %8 = alloca i32, align 4
  %9 = alloca ptr, align 8
  %10 = alloca ptr, align 8
  %11 = alloca i32, align 4
  store ptr %0, ptr %4, align 8, !tbaa !28
  store i64 %1, ptr %5, align 8, !tbaa !42
  store i32 %2, ptr %6, align 4, !tbaa !10
  call void @llvm.lifetime.start.p0(i64 4, ptr %7) #15
  store i32 0, ptr %7, align 4, !tbaa !10
  br label %12

12:                                               ; preds = %51, %3
  %13 = load i32, ptr %7, align 4, !tbaa !10
  %14 = load i32, ptr %6, align 4, !tbaa !10
  %15 = icmp slt i32 %13, %14
  br i1 %15, label %17, label %16

16:                                               ; preds = %12
  store i32 2, ptr %8, align 4
  call void @llvm.lifetime.end.p0(i64 4, ptr %7) #15
  br label %54

17:                                               ; preds = %12
  call void @llvm.lifetime.start.p0(i64 8, ptr %9) #15
  %18 = load ptr, ptr %4, align 8, !tbaa !28
  %19 = load i64, ptr %5, align 8, !tbaa !42
  %20 = load i32, ptr %7, align 4, !tbaa !10
  %21 = sext i32 %20 to i64
  %22 = mul i64 %19, %21
  %23 = getelementptr inbounds nuw i8, ptr %18, i64 %22
  store ptr %23, ptr %9, align 8, !tbaa !177
  call void @llvm.lifetime.start.p0(i64 8, ptr %10) #15
  %24 = load ptr, ptr %4, align 8, !tbaa !28
  %25 = load i32, ptr %7, align 4, !tbaa !10
  %26 = sext i32 %25 to i64
  %27 = mul i64 %26, 8
  %28 = getelementptr inbounds nuw i8, ptr %24, i64 %27
  store ptr %28, ptr %10, align 8, !tbaa !28
  call void @llvm.lifetime.start.p0(i64 4, ptr %11) #15
  %29 = load i32, ptr %7, align 4, !tbaa !10
  %30 = add nsw i32 %29, 1
  store i32 %30, ptr %11, align 4, !tbaa !10
  br label %31

31:                                               ; preds = %47, %17
  %32 = load i32, ptr %11, align 4, !tbaa !10
  %33 = load i32, ptr %6, align 4, !tbaa !10
  %34 = icmp slt i32 %32, %33
  br i1 %34, label %36, label %35

35:                                               ; preds = %31
  store i32 5, ptr %8, align 4
  call void @llvm.lifetime.end.p0(i64 4, ptr %11) #15
  br label %50

36:                                               ; preds = %31
  %37 = load ptr, ptr %9, align 8, !tbaa !177
  %38 = load i32, ptr %11, align 4, !tbaa !10
  %39 = sext i32 %38 to i64
  %40 = getelementptr inbounds %"class.cv::Vec.13", ptr %37, i64 %39
  %41 = load ptr, ptr %10, align 8, !tbaa !28
  %42 = load i64, ptr %5, align 8, !tbaa !42
  %43 = load i32, ptr %11, align 4, !tbaa !10
  %44 = sext i32 %43 to i64
  %45 = mul i64 %42, %44
  %46 = getelementptr inbounds nuw i8, ptr %41, i64 %45
  call void @_ZSt4swapIN2cv3VecIiLi2EEEENSt9enable_ifIXsr6__and_ISt6__not_ISt15__is_tuple_likeIT_EESt21is_move_constructibleIS6_ESt18is_move_assignableIS6_EEE5valueEvE4typeERS6_SF_(ptr noundef nonnull align 4 dereferenceable(8) %40, ptr noundef nonnull align 4 dereferenceable(8) %46)
  br label %47

47:                                               ; preds = %36
  %48 = load i32, ptr %11, align 4, !tbaa !10
  %49 = add nsw i32 %48, 1
  store i32 %49, ptr %11, align 4, !tbaa !10
  br label %31, !llvm.loop !179

50:                                               ; preds = %35
  call void @llvm.lifetime.end.p0(i64 8, ptr %10) #15
  call void @llvm.lifetime.end.p0(i64 8, ptr %9) #15
  br label %51

51:                                               ; preds = %50
  %52 = load i32, ptr %7, align 4, !tbaa !10
  %53 = add nsw i32 %52, 1
  store i32 %53, ptr %7, align 4, !tbaa !10
  br label %12, !llvm.loop !180

54:                                               ; preds = %16
  ret void
}

; Function Attrs: mustprogress uwtable
define internal void @_ZN2cvL16transposeI_32sC2EPhmi(ptr noundef %0, i64 noundef %1, i32 noundef %2) #0 {
  %4 = alloca ptr, align 8
  %5 = alloca i64, align 8
  %6 = alloca i32, align 4
  store ptr %0, ptr %4, align 8, !tbaa !28
  store i64 %1, ptr %5, align 8, !tbaa !42
  store i32 %2, ptr %6, align 4, !tbaa !10
  %7 = load ptr, ptr %4, align 8, !tbaa !28
  %8 = load i64, ptr %5, align 8, !tbaa !42
  %9 = load i32, ptr %6, align 4, !tbaa !10
  call void @_ZN2cvL11transposeI_INS_3VecIiLi2EEEEEvPhmi(ptr noundef %7, i64 noundef %8, i32 noundef %9)
  ret void
}