; Function Attrs: mustprogress nofree norecurse nosync nounwind memory(argmem: readwrite) uwtable
define internal void @_ZN2cvL16transposeI_32sC2EPhmi(ptr noundef captures(none) %0, i64 noundef %1, i32 noundef %2) #7 {
  %4 = icmp sgt i32 %2, 0
  br i1 %4, label %.lr.ph20.preheader.i, label %_ZN2cvL11transposeI_INS_3VecIiLi2EEEEEvPhmi.exit

.lr.ph20.preheader.i:                             ; preds = %3
  %5 = zext nneg i32 %2 to i64
  br label %.lr.ph20.i

.loopexit.i:                                      ; preds = %.lr.ph.i, %.lr.ph20.i
  %indvars.iv.next.i = add nuw nsw i64 %indvars.iv.i, 1
  %exitcond28.not.i = icmp eq i64 %indvars.iv.next25.i, %5
  br i1 %exitcond28.not.i, label %_ZN2cvL11transposeI_INS_3VecIiLi2EEEEEvPhmi.exit, label %.lr.ph20.i, !llvm.loop !164

.lr.ph20.i:                                       ; preds = %.loopexit.i, %.lr.ph20.preheader.i
  %indvars.iv24.i = phi i64 [ 0, %.lr.ph20.preheader.i ], [ %indvars.iv.next25.i, %.loopexit.i ]
  %indvars.iv.i = phi i64 [ 1, %.lr.ph20.preheader.i ], [ %indvars.iv.next.i, %.loopexit.i ]
  %6 = mul i64 %indvars.iv24.i, %1
  %7 = getelementptr inbounds nuw i8, ptr %0, i64 %6
  %8 = shl nuw nsw i64 %indvars.iv24.i, 3
  %9 = getelementptr inbounds nuw i8, ptr %0, i64 %8
  %indvars.iv.next25.i = add nuw nsw i64 %indvars.iv24.i, 1
  %10 = icmp samesign ult i64 %indvars.iv.next25.i, %5
  br i1 %10, label %.lr.ph.i, label %.loopexit.i

.lr.ph.i:                                         ; preds = %.lr.ph20.i, %.lr.ph.i
  %indvars.iv21.i = phi i64 [ %indvars.iv.next22.i, %.lr.ph.i ], [ %indvars.iv.i, %.lr.ph20.i ]
  %11 = getelementptr inbounds nuw %"class.cv::Vec.13", ptr %7, i64 %indvars.iv21.i
  %12 = mul i64 %indvars.iv21.i, %1
  %13 = getelementptr inbounds nuw i8, ptr %9, i64 %12
  %14 = load i64, ptr %11, align 4
  %15 = load i64, ptr %13, align 4
  store i64 %15, ptr %11, align 4
  store i64 %14, ptr %13, align 4
  %indvars.iv.next22.i = add nuw nsw i64 %indvars.iv21.i, 1
  %exitcond.not.i = icmp eq i64 %indvars.iv.next22.i, %5
  br i1 %exitcond.not.i, label %.loopexit.i, label %.lr.ph.i, !llvm.loop !165

_ZN2cvL11transposeI_INS_3VecIiLi2EEEEEvPhmi.exit: ; preds = %.loopexit.i, %3
  ret void
}